target datalayout = "e-m:e-p270:32:32-p271:32:32-p272:64:64-i64:64-i128:128-f80:128-n8:16:32:64-S128"
target triple = "x86_64-pc-linux-gnu"

%"class.icu_77::FullCaseFoldingIterator" = type <{ ptr, i32, i32, i32, i32, i32, [4 x i8] }>
%"class.icu_77::ConstChar16Ptr" = type { ptr }

; Function Attrs: inlinehint mustprogress nounwind uwtable
define linkonce_odr void @_ZN6icu_7714ConstChar16PtrD2Ev(ptr noundef nonnull align 8 dereferenceable(8) %0) unnamed_addr #1 comdat align 2 {
  %2 = alloca ptr, align 8
  store ptr %0, ptr %2, align 8, !tbaa !55
  %3 = load ptr, ptr %2, align 8
  %4 = getelementptr inbounds nuw %"class.icu_77::ConstChar16Ptr", ptr %3, i32 0, i32 0
  %5 = load ptr, ptr %4, align 8, !tbaa !57
  call void asm sideeffect "", "rm,~{memory},~{dirflag},~{fpsr},~{flags}"(ptr %5) #5, !srcloc !59
  ret void
}

; Function Attrs: inlinehint mustprogress nounwind uwtable
define linkonce_odr void @_ZN6icu_7714ConstChar16PtrC2EPKDs(ptr noundef nonnull align 8 dereferenceable(8) %0, ptr noundef %1) unnamed_addr #1 comdat align 2 {
  %3 = alloca ptr, align 8
  %4 = alloca ptr, align 8
  store ptr %0, ptr %3, align 8, !tbaa !55
  store ptr %1, ptr %4, align 8, !tbaa !32
  %5 = load ptr, ptr %3, align 8
  %6 = getelementptr inbounds nuw %"class.icu_77::ConstChar16Ptr", ptr %5, i32 0, i32 0
  %7 = load ptr, ptr %4, align 8, !tbaa !32
  store ptr %7, ptr %6, align 8, !tbaa !57
  ret void
}

; Function Attrs: mustprogress uwtable
define noundef i32 @_ZN6icu_7723FullCaseFoldingIterator4nextERNS_13UnicodeStringE(ptr noundef nonnull align 8 dereferenceable(28) %0, ptr noundef nonnull align 8 dereferenceable(64) %1) #0 align 2 personality ptr @__gxx_personality_v0 {
  %3 = alloca i32, align 4
  %4 = alloca ptr, align 8
  %5 = alloca ptr, align 8
  %6 = alloca ptr, align 8
  %7 = alloca i32, align 4
  %8 = alloca i32, align 4
  %9 = alloca %"class.icu_77::ConstChar16Ptr", align 8
  %10 = alloca ptr, align 8
  %11 = alloca i32, align 4
  %12 = alloca i32, align 4
  store ptr %0, ptr %4, align 8, !tbaa !43
  store ptr %1, ptr %5, align 8, !tbaa !52
  %13 = load ptr, ptr %4, align 8
  call void @llvm.lifetime.start.p0(i64 8, ptr %6) #5
  %14 = getelementptr inbounds nuw %"class.icu_77::FullCaseFoldingIterator", ptr %13, i32 0, i32 0
  %15 = load ptr, ptr %14, align 8, !tbaa !45
  %16 = getelementptr inbounds nuw %"class.icu_77::FullCaseFoldingIterator", ptr %13, i32 0, i32 4
  %17 = load i32, ptr %16, align 4, !tbaa !50
  %18 = getelementptr inbounds nuw %"class.icu_77::FullCaseFoldingIterator", ptr %13, i32 0, i32 2
  %19 = load i32, ptr %18, align 4, !tbaa !48
  %20 = mul nsw i32 %17, %19
  %21 = sext i32 %20 to i64
  %22 = getelementptr inbounds i16, ptr %15, i64 %21
  store ptr %22, ptr %6, align 8, !tbaa !32
  %23 = getelementptr inbounds nuw %"class.icu_77::FullCaseFoldingIterator", ptr %13, i32 0, i32 5
  %24 = load i32, ptr %23, align 8, !tbaa !51
  %25 = getelementptr inbounds nuw %"class.icu_77::FullCaseFoldingIterator", ptr %13, i32 0, i32 2
  %26 = load i32, ptr %25, align 4, !tbaa !48
  %27 = icmp sge i32 %24, %26
  br i1 %27, label %37, label %28

28:                                               ; preds = %2
  %29 = load ptr, ptr %6, align 8, !tbaa !32
  %30 = getelementptr inbounds nuw %"class.icu_77::FullCaseFoldingIterator", ptr %13, i32 0, i32 5
  %31 = load i32, ptr %30, align 8, !tbaa !51
  %32 = sext i32 %31 to i64
  %33 = getelementptr inbounds i16, ptr %29, i64 %32
  %34 = load i16, ptr %33, align 2, !tbaa !34
  %35 = zext i16 %34 to i32
  %36 = icmp eq i32 %35, 0
  br i1 %36, label %37, label %49

37:                                               ; preds = %28, %2
  %38 = getelementptr inbounds nuw %"class.icu_77::FullCaseFoldingIterator", ptr %13, i32 0, i32 4
  %39 = load i32, ptr %38, align 4, !tbaa !50
  %40 = add nsw i32 %39, 1
  store i32 %40, ptr %38, align 4, !tbaa !50
  %41 = getelementptr inbounds nuw %"class.icu_77::FullCaseFoldingIterator", ptr %13, i32 0, i32 2
  %42 = load i32, ptr %41, align 4, !tbaa !48
  %43 = load ptr, ptr %6, align 8, !tbaa !32
  %44 = sext i32 %42 to i64
  %45 = getelementptr inbounds i16, ptr %43, i64 %44
  store ptr %45, ptr %6, align 8, !tbaa !32
  %46 = getelementptr inbounds nuw %"class.icu_77::FullCaseFoldingIterator", ptr %13, i32 0, i32 3
  %47 = load i32, ptr %46, align 8, !tbaa !49
  %48 = getelementptr inbounds nuw %"class.icu_77::FullCaseFoldingIterator", ptr %13, i32 0, i32 5
  store i32 %47, ptr %48, align 8, !tbaa !51
  br label %49

49:                                               ; preds = %37, %28
  %50 = getelementptr inbounds nuw %"class.icu_77::FullCaseFoldingIterator", ptr %13, i32 0, i32 4
  %51 = load i32, ptr %50, align 4, !tbaa !50
  %52 = getelementptr inbounds nuw %"class.icu_77::FullCaseFoldingIterator", ptr %13, i32 0, i32 1
  %53 = load i32, ptr %52, align 8, !tbaa !47
  %54 = icmp sge i32 %51, %53
  br i1 %54, label %55, label %56

55:                                               ; preds = %49
  store i32 -1, ptr %3, align 4
  store i32 1, ptr %7, align 4
  br label %115

56:                                               ; preds = %49
  call void @llvm.lifetime.start.p0(i64 4, ptr %8) #5
  %57 = getelementptr inbounds nuw %"class.icu_77::FullCaseFoldingIterator", ptr %13, i32 0, i32 3
  %58 = load i32, ptr %57, align 8, !tbaa !49
  store i32 %58, ptr %8, align 4, !tbaa !11
  br label %59

59:                                               ; preds = %73, %56
  %60 = load i32, ptr %8, align 4, !tbaa !11
  %61 = icmp sgt i32 %60, 0
  br i1 %61, label %62, label %71

62:                                               ; preds = %59
  %63 = load ptr, ptr %6, align 8, !tbaa !32
  %64 = load i32, ptr %8, align 4, !tbaa !11
  %65 = sub nsw i32 %64, 1
  %66 = sext i32 %65 to i64
  %67 = getelementptr inbounds i16, ptr %63, i64 %66
  %68 = load i16, ptr %67, align 2, !tbaa !34
  %69 = zext i16 %68 to i32
  %70 = icmp eq i32 %69, 0
  br label %71

71:                                               ; preds = %62, %59
  %72 = phi i1 [ false, %59 ], [ %70, %62 ]
  br i1 %72, label %73, label %76

73:                                               ; preds = %71
  %74 = load i32, ptr %8, align 4, !tbaa !11
  %75 = add nsw i32 %74, -1
  store i32 %75, ptr %8, align 4, !tbaa !11
  br label %59, !llvm.loop !54

76:                                               ; preds = %71
  %77 = load ptr, ptr %5, align 8, !tbaa !52
  %78 = load ptr, ptr %6, align 8, !tbaa !32
  call void @_ZN6icu_7714ConstChar16PtrC2EPKDs(ptr noundef nonnull align 8 dereferenceable(8) %9, ptr noundef %78)
  %79 = load i32, ptr %8, align 4, !tbaa !11
  %80 = invoke noundef nonnull align 8 dereferenceable(64) ptr @_ZN6icu_7713UnicodeString5setToEaNS_14ConstChar16PtrEi(ptr noundef nonnull align 8 dereferenceable(64) %77, i8 noundef signext 0, ptr noundef %9, i32 noundef %79)
          to label %81 unwind label %107

81:                                               ; preds = %76
  call void @_ZN6icu_7714ConstChar16PtrD2Ev(ptr noundef nonnull align 8 dereferenceable(8) %9) #5
  call void @llvm.lifetime.start.p0(i64 4, ptr %12) #5
  br label %82

82:                                               ; preds = %81
  %83 = load ptr, ptr %6, align 8, !tbaa !32
  %84 = getelementptr inbounds nuw %"class.icu_77::FullCaseFoldingIterator", ptr %13, i32 0, i32 5
  %85 = load i32, ptr %84, align 8, !tbaa !51
  %86 = add nsw i32 %85, 1
  store i32 %86, ptr %84, align 8, !tbaa !51
  %87 = sext i32 %85 to i64
  %88 = getelementptr inbounds i16, ptr %83, i64 %87
  %89 = load i16, ptr %88, align 2, !tbaa !34
  %90 = zext i16 %89 to i32
  store i32 %90, ptr %12, align 4, !tbaa !11
  %91 = load i32, ptr %12, align 4, !tbaa !11
  %92 = and i32 %91, -1024
  %93 = icmp eq i32 %92, 55296
  br i1 %93, label %94, label %111

94:                                               ; preds = %82
  %95 = load i32, ptr %12, align 4, !tbaa !11
  %96 = shl i32 %95, 10
  %97 = load ptr, ptr %6, align 8, !tbaa !32
  %98 = getelementptr inbounds nuw %"class.icu_77::FullCaseFoldingIterator", ptr %13, i32 0, i32 5
  %99 = load i32, ptr %98, align 8, !tbaa !51
  %100 = add nsw i32 %99, 1
  store i32 %100, ptr %98, align 8, !tbaa !51
  %101 = sext i32 %99 to i64
  %102 = getelementptr inbounds i16, ptr %97, i64 %101
  %103 = load i16, ptr %102, align 2, !tbaa !34
  %104 = zext i16 %103 to i32
  %105 = add nsw i32 %96, %104
  %106 = sub nsw i32 %105, 56613888
  store i32 %106, ptr %12, align 4, !tbaa !11
  br label %111

107:                                              ; preds = %76
  %108 = landingpad { ptr, i32 }
          cleanup
  %109 = extractvalue { ptr, i32 } %108, 0
  store ptr %109, ptr %10, align 8
  %110 = extractvalue { ptr, i32 } %108, 1
  store i32 %110, ptr %11, align 4
  call void @_ZN6icu_7714ConstChar16PtrD2Ev(ptr noundef nonnull align 8 dereferenceable(8) %9) #5
  call void @llvm.lifetime.end.p0(i64 4, ptr %8) #5
  call void @llvm.lifetime.end.p0(i64 8, ptr %6) #5
  br label %117

111:                                              ; preds = %94, %82
  br label %112

112:                                              ; preds = %111
  br label %113

113:                                              ; preds = %112
  %114 = load i32, ptr %12, align 4, !tbaa !11
  store i32 %114, ptr %3, align 4
  store i32 1, ptr %7, align 4
  call void @llvm.lifetime.end.p0(i64 4, ptr %12) #5
  call void @llvm.lifetime.end.p0(i64 4, ptr %8) #5
  br label %115

115:                                              ; preds = %113, %55
  call void @llvm.lifetime.end.p0(i64 8, ptr %6) #5
  %116 = load i32, ptr %3, align 4
  ret i32 %116

117:                                              ; preds = %107
  %118 = load ptr, ptr %10, align 8
  %119 = load i32, ptr %11, align 4
  %120 = insertvalue { ptr, i32 } poison, ptr %118, 0
  %121 = insertvalue { ptr, i32 } %120, i32 %119, 1
  resume { ptr, i32 } %121
}