; Function Attrs: mustprogress uwtable
define noundef range(i32 -1, 10559488) i32 @_ZN6icu_7723FullCaseFoldingIterator4nextERNS_13UnicodeStringE(ptr noundef nonnull align 8 captures(none) dereferenceable(28) %0, ptr noundef nonnull align 8 dereferenceable(64) %1) local_unnamed_addr #0 align 2 personality ptr @__gxx_personality_v0 {
  %3 = alloca %"class.icu_77::ConstChar16Ptr", align 8
  %4 = load ptr, ptr %0, align 8, !tbaa !35
  %5 = getelementptr inbounds nuw i8, ptr %0, i64 20
  %6 = load i32, ptr %5, align 4, !tbaa !33
  %7 = getelementptr inbounds nuw i8, ptr %0, i64 12
  %8 = load i32, ptr %7, align 4, !tbaa !31
  %9 = mul nsw i32 %8, %6
  %10 = sext i32 %9 to i64
  %11 = getelementptr inbounds i16, ptr %4, i64 %10
  %12 = getelementptr inbounds nuw i8, ptr %0, i64 24
  %13 = load i32, ptr %12, align 8, !tbaa !34
  %.not = icmp slt i32 %13, %8
  br i1 %.not, label %14, label %19

14:                                               ; preds = %2
  %15 = sext i32 %13 to i64
  %16 = getelementptr inbounds i16, ptr %11, i64 %15
  %17 = load i16, ptr %16, align 2, !tbaa !20
  %18 = icmp eq i16 %17, 0
  br i1 %18, label %19, label %25

19:                                               ; preds = %14, %2
  %20 = add nsw i32 %6, 1
  store i32 %20, ptr %5, align 4, !tbaa !33
  %21 = sext i32 %8 to i64
  %22 = getelementptr inbounds i16, ptr %11, i64 %21
  %23 = getelementptr inbounds nuw i8, ptr %0, i64 16
  %24 = load i32, ptr %23, align 8, !tbaa !32
  store i32 %24, ptr %12, align 8, !tbaa !34
  br label %25

25:                                               ; preds = %19, %14
  %26 = phi i32 [ %20, %19 ], [ %6, %14 ]
  %.018 = phi ptr [ %22, %19 ], [ %11, %14 ]
  %27 = getelementptr inbounds nuw i8, ptr %0, i64 8
  %28 = load i32, ptr %27, align 8, !tbaa !28
  %.not21 = icmp slt i32 %26, %28
  br i1 %.not21, label %29, label %62

29:                                               ; preds = %25
  %30 = getelementptr inbounds nuw i8, ptr %0, i64 16
  %31 = load i32, ptr %30, align 8, !tbaa !32
  %invariant.gep = getelementptr i8, ptr %.018, i64 -2
  %32 = icmp sgt i32 %31, 0
  br i1 %32, label %.lr.ph, label %.critedge

.lr.ph:                                           ; preds = %29, %36
  %.01922 = phi i32 [ %37, %36 ], [ %31, %29 ]
  %33 = zext nneg i32 %.01922 to i64
  %gep = getelementptr i16, ptr %invariant.gep, i64 %33
  %34 = load i16, ptr %gep, align 2, !tbaa !20
  %35 = icmp eq i16 %34, 0
  br i1 %35, label %36, label %.critedge

36:                                               ; preds = %.lr.ph
  %37 = add nsw i32 %.01922, -1
  %38 = icmp sgt i32 %.01922, 1
  br i1 %38, label %.lr.ph, label %.critedge, !llvm.loop !36

.critedge:                                        ; preds = %.lr.ph, %36, %29
  %.019.lcssa = phi i32 [ %31, %29 ], [ 0, %36 ], [ %.01922, %.lr.ph ]
  store ptr %.018, ptr %3, align 8, !tbaa !37
  %39 = invoke noundef nonnull align 8 dereferenceable(64) ptr @_ZN6icu_7713UnicodeString5setToEaNS_14ConstChar16PtrEi(ptr noundef nonnull align 8 dereferenceable(64) %1, i8 noundef signext 0, ptr noundef nonnull %3, i32 noundef %.019.lcssa)
          to label %40 unwind label %59

40:                                               ; preds = %.critedge
  %41 = load ptr, ptr %3, align 8, !tbaa !37
  call void asm sideeffect "", "rm,~{memory},~{dirflag},~{fpsr},~{flags}"(ptr %41) #6, !srcloc !39
  %42 = load i32, ptr %12, align 8, !tbaa !34
  %43 = add nsw i32 %42, 1
  store i32 %43, ptr %12, align 8, !tbaa !34
  %44 = sext i32 %42 to i64
  %45 = getelementptr inbounds i16, ptr %.018, i64 %44
  %46 = load i16, ptr %45, align 2, !tbaa !20
  %47 = zext i16 %46 to i32
  %48 = and i32 %47, 64512
  %49 = icmp eq i32 %48, 55296
  br i1 %49, label %50, label %62

50:                                               ; preds = %40
  %51 = shl nuw nsw i32 %47, 10
  %52 = add nsw i32 %42, 2
  store i32 %52, ptr %12, align 8, !tbaa !34
  %53 = sext i32 %43 to i64
  %54 = getelementptr inbounds i16, ptr %.018, i64 %53
  %55 = load i16, ptr %54, align 2, !tbaa !20
  %56 = zext i16 %55 to i32
  %57 = add nsw i32 %51, -56613888
  %58 = add nuw nsw i32 %57, %56
  br label %62

59:                                               ; preds = %.critedge
  %60 = landingpad { ptr, i32 }
          cleanup
  %61 = load ptr, ptr %3, align 8, !tbaa !37
  call void asm sideeffect "", "rm,~{memory},~{dirflag},~{fpsr},~{flags}"(ptr %61) #6, !srcloc !39
  resume { ptr, i32 } %60

62:                                               ; preds = %40, %50, %25
  %.017 = phi i32 [ -1, %25 ], [ %58, %50 ], [ %47, %40 ]
  ret i32 %.017
}